target datalayout = "e-m:e-p270:32:32-p271:32:32-p272:64:64-i64:64-i128:128-f80:128-n8:16:32:64-S128"
target triple = "x86_64-pc-linux-gnu"

%"class.boost::unit_test::test_results" = type <{ %"class.boost::unit_test::test_results::readonly_property59", %"class.boost::unit_test::test_results::readonly_property59", %"class.boost::unit_test::test_results::readonly_property59", %"class.boost::unit_test::test_results::readonly_property59", %"class.boost::unit_test::test_results::readonly_property59", %"class.boost::unit_test::test_results::readonly_property59", %"class.boost::unit_test::test_results::readonly_property59", %"class.boost::unit_test::test_results::readonly_property59", %"class.boost::unit_test::test_results::readonly_property59", %"class.boost::unit_test::test_results::readonly_property59", %"class.boost::unit_test::test_results::readonly_property59", %"class.boost::unit_test::test_results::readonly_property59", %"class.boost::unit_test::test_results::readonly_property59", %"class.boost::unit_test::test_results::readonly_property63", %"class.boost::unit_test::test_results::readonly_property63", %"class.boost::unit_test::test_results::readonly_property63", [5 x i8] }>
%"class.boost::unit_test::test_results::readonly_property59" = type { %"class.boost::unit_test::readonly_property" }
%"class.boost::unit_test::readonly_property" = type { %"class.boost::unit_test::class_property" }
%"class.boost::unit_test::class_property" = type { i64 }
%"class.boost::unit_test::test_results::readonly_property63" = type { %"class.boost::unit_test::readonly_property.0" }
%"class.boost::unit_test::readonly_property.0" = type { %"class.boost::unit_test::class_property.1" }
%"class.boost::unit_test::class_property.1" = type { i8 }

; Function Attrs: mustprogress nounwind uwtable
define linkonce_odr hidden noundef nonnull align 1 dereferenceable(1) ptr @_ZNK5boost9unit_test14class_propertyIbEcvRKbEv(ptr noundef nonnull align 1 dereferenceable(1) %0) #4 comdat align 2 {
  %2 = alloca ptr, align 8
  store ptr %0, ptr %2, align 8, !tbaa !3
  %3 = load ptr, ptr %2, align 8
  %4 = getelementptr inbounds nuw %"class.boost::unit_test::class_property.1", ptr %3, i32 0, i32 0
  ret ptr %4
}

; Function Attrs: mustprogress uwtable
define noundef zeroext i1 @_ZNK5boost9unit_test12test_results7abortedEv(ptr noundef nonnull align 8 dereferenceable(107) %0) #5 align 2 {
  %2 = alloca ptr, align 8
  store ptr %0, ptr %2, align 8, !tbaa !3
  %3 = load ptr, ptr %2, align 8
  %4 = getelementptr inbounds nuw %"class.boost::unit_test::test_results", ptr %3, i32 0, i32 13
  %5 = call noundef nonnull align 1 dereferenceable(1) ptr @_ZNK5boost9unit_test14class_propertyIbEcvRKbEv(ptr noundef nonnull align 1 dereferenceable(1) %4)
  %6 = load i8, ptr %5, align 1, !tbaa !17, !range !15, !noundef !16
  %7 = trunc i8 %6 to i1
  ret i1 %7
}

; Function Attrs: mustprogress nounwind uwtable
define linkonce_odr hidden noundef nonnull align 8 dereferenceable(8) ptr @_ZNK5boost9unit_test14class_propertyImEcvRKmEv(ptr noundef nonnull align 8 dereferenceable(8) %0) #4 comdat align 2 {
  %2 = alloca ptr, align 8
  store ptr %0, ptr %2, align 8, !tbaa !3
  %3 = load ptr, ptr %2, align 8
  %4 = getelementptr inbounds nuw %"class.boost::unit_test::class_property", ptr %3, i32 0, i32 0
  ret ptr %4
}

; Function Attrs: mustprogress nounwind uwtable
define linkonce_odr hidden noundef zeroext i1 @_ZNK5boost9unit_test14class_propertyIbEntEv(ptr noundef nonnull align 1 dereferenceable(1) %0) #4 comdat align 2 {
  %2 = alloca ptr, align 8
  store ptr %0, ptr %2, align 8, !tbaa !3
  %3 = load ptr, ptr %2, align 8
  %4 = getelementptr inbounds nuw %"class.boost::unit_test::class_property.1", ptr %3, i32 0, i32 0
  %5 = load i8, ptr %4, align 1, !tbaa !11, !range !15, !noundef !16
  %6 = trunc i8 %5 to i1
  %7 = xor i1 %6, true
  ret i1 %7
}

; Function Attrs: mustprogress uwtable
define noundef zeroext i1 @_ZNK5boost9unit_test12test_results6passedEv(ptr noundef nonnull align 8 dereferenceable(107) %0) #5 align 2 {
  %2 = alloca ptr, align 8
  store ptr %0, ptr %2, align 8, !tbaa !3
  %3 = load ptr, ptr %2, align 8
  %4 = getelementptr inbounds nuw %"class.boost::unit_test::test_results", ptr %3, i32 0, i32 14
  %5 = call noundef zeroext i1 @_ZNK5boost9unit_test14class_propertyIbEntEv(ptr noundef nonnull align 1 dereferenceable(1) %4)
  br i1 %5, label %6, label %30

6:                                                ; preds = %1
  %7 = getelementptr inbounds nuw %"class.boost::unit_test::test_results", ptr %3, i32 0, i32 7
  %8 = call noundef nonnull align 8 dereferenceable(8) ptr @_ZNK5boost9unit_test14class_propertyImEcvRKmEv(ptr noundef nonnull align 8 dereferenceable(8) %7)
  %9 = load i64, ptr %8, align 8, !tbaa !14
  %10 = icmp eq i64 %9, 0
  br i1 %10, label %11, label %30

11:                                               ; preds = %6
  %12 = getelementptr inbounds nuw %"class.boost::unit_test::test_results", ptr %3, i32 0, i32 2
  %13 = call noundef nonnull align 8 dereferenceable(8) ptr @_ZNK5boost9unit_test14class_propertyImEcvRKmEv(ptr noundef nonnull align 8 dereferenceable(8) %12)
  %14 = load i64, ptr %13, align 8, !tbaa !14
  %15 = getelementptr inbounds nuw %"class.boost::unit_test::test_results", ptr %3, i32 0, i32 4
  %16 = call noundef nonnull align 8 dereferenceable(8) ptr @_ZNK5boost9unit_test14class_propertyImEcvRKmEv(ptr noundef nonnull align 8 dereferenceable(8) %15)
  %17 = load i64, ptr %16, align 8, !tbaa !14
  %18 = icmp ule i64 %14, %17
  br i1 %18, label %19, label %30

19:                                               ; preds = %11
  %20 = getelementptr inbounds nuw %"class.boost::unit_test::test_results", ptr %3, i32 0, i32 15
  %21 = call noundef zeroext i1 @_ZNK5boost9unit_test14class_propertyIbEntEv(ptr noundef nonnull align 1 dereferenceable(1) %20)
  br i1 %21, label %22, label %30

22:                                               ; preds = %19
  %23 = getelementptr inbounds nuw %"class.boost::unit_test::test_results", ptr %3, i32 0, i32 10
  %24 = call noundef nonnull align 8 dereferenceable(8) ptr @_ZNK5boost9unit_test14class_propertyImEcvRKmEv(ptr noundef nonnull align 8 dereferenceable(8) %23)
  %25 = load i64, ptr %24, align 8, !tbaa !14
  %26 = icmp eq i64 %25, 0
  br i1 %26, label %27, label %30

27:                                               ; preds = %22
  %28 = call noundef zeroext i1 @_ZNK5boost9unit_test12test_results7abortedEv(ptr noundef nonnull align 8 dereferenceable(107) %3)
  %29 = xor i1 %28, true
  br label %30

30:                                               ; preds = %27, %22, %19, %11, %6, %1
  %31 = phi i1 [ false, %22 ], [ false, %19 ], [ false, %11 ], [ false, %6 ], [ false, %1 ], [ %29, %27 ]
  ret i1 %31
}