; Function Attrs: mustprogress nofree norecurse nosync nounwind willreturn memory(argmem: read) uwtable
define noundef zeroext i1 @_ZNK5boost9unit_test12test_results6passedEv(ptr nocapture noundef nonnull readonly align 8 dereferenceable(107) %0) local_unnamed_addr #5 align 2 {
  %2 = getelementptr inbounds nuw i8, ptr %0, i64 105
  %3 = load i8, ptr %2, align 1, !tbaa !4, !range !9, !noundef !10
  %4 = trunc nuw i8 %3 to i1
  %5 = getelementptr inbounds nuw i8, ptr %0, i64 56
  %6 = load i64, ptr %5, align 8
  %7 = icmp ne i64 %6, 0
  %or.cond.not = select i1 %4, i1 true, i1 %7
  br i1 %or.cond.not, label %25, label %8

8:                                                ; preds = %1
  %9 = getelementptr inbounds nuw i8, ptr %0, i64 16
  %10 = load i64, ptr %9, align 8, !tbaa !11
  %11 = getelementptr inbounds nuw i8, ptr %0, i64 32
  %12 = load i64, ptr %11, align 8, !tbaa !11
  %.not = icmp ule i64 %10, %12
  %13 = getelementptr inbounds nuw i8, ptr %0, i64 106
  %14 = load i8, ptr %13, align 2, !range !9
  %15 = trunc nuw i8 %14 to i1
  %16 = xor i1 %15, true
  %or.cond6 = select i1 %.not, i1 %16, i1 false
  %17 = getelementptr inbounds nuw i8, ptr %0, i64 80
  %18 = load i64, ptr %17, align 8
  %19 = icmp eq i64 %18, 0
  %or.cond9 = select i1 %or.cond6, i1 %19, i1 false
  br i1 %or.cond9, label %20, label %25

20:                                               ; preds = %8
  %21 = getelementptr inbounds nuw i8, ptr %0, i64 104
  %22 = load i8, ptr %21, align 8, !tbaa !13, !range !9, !noundef !10
  %23 = trunc nuw i8 %22 to i1
  %24 = xor i1 %23, true
  br label %25

25:                                               ; preds = %20, %8, %1
  %26 = phi i1 [ false, %8 ], [ false, %1 ], [ %24, %20 ]
  ret i1 %26
}